Certificate:
    Data:
        Version: 3 (0x2)
        Serial Number: 1 (0x1)
    Signature Algorithm: sha256WithRSAEncryption
        Issuer: C=CN, ST=SH, L=SH, O=KingAlong Ltd/emailAddress=zhang.leliang@kortide.com
        Validity
            Not Before: Jan 14 08:26:17 2016 GMT
            Not After : Jan 13 08:26:17 2017 GMT
        Subject: C=CN, ST=SH, O=KingAlong Ltd, CN=zll.homenet.org/emailAddress=zll5267@163.com
        Subject Public Key Info:
            Public Key Algorithm: rsaEncryption
                Public-Key: (1024 bit)
                Modulus:
                    00:ea:6b:f3:60:f2:30:bb:fc:cb:de:4b:54:f1:c6:
                    13:22:77:c9:2d:64:83:15:f5:fa:18:c8:f0:53:e8:
                    52:03:e0:7c:46:30:6b:e0:fd:af:c6:79:a8:0c:ac:
                    d7:4f:77:a5:95:bb:72:56:79:68:90:81:38:6a:04:
                    ea:f5:11:94:10:b3:73:80:1a:78:af:36:68:19:83:
                    c7:cf:e4:a5:f7:1d:7c:bf:c7:75:62:4b:4a:73:74:
                    68:ca:09:9d:24:86:52:64:4d:0f:5e:6b:ae:1f:a8:
                    23:75:73:fc:ce:05:c1:2d:78:a8:85:56:68:83:c9:
                    36:b0:65:36:a0:0b:1a:8c:ed
                Exponent: 65537 (0x10001)
        X509v3 extensions:
            X509v3 Basic Constraints: 
                CA:FALSE
            Netscape Comment: 
                OpenSSL Generated Certificate
            X509v3 Subject Key Identifier: 
                06:0E:B9:9E:19:6E:15:29:B5:D4:BF:1B:62:22:71:F8:22:4B:DC:A8
            X509v3 Authority Key Identifier: 
                keyid:BD:E4:A8:35:2B:2C:66:C5:E0:B0:D4:48:0E:8A:EA:71:5B:28:C7:4A

    Signature Algorithm: sha256WithRSAEncryption
         06:88:59:8c:e1:7f:41:a6:19:58:58:22:02:28:16:b7:61:3a:
         f7:35:c5:ef:a5:12:19:8e:25:70:eb:ad:f4:25:6f:00:ba:93:
         21:53:e8:e1:03:95:b5:05:2f:31:fe:07:76:ca:3b:4e:e5:09:
         70:0c:76:57:48:a5:b7:29:aa:b0:2a:7b:a4:73:7c:e4:38:23:
         50:eb:71:dd:21:55:a0:95:37:cf:0c:bb:cc:7f:89:0e:68:e9:
         36:3c:01:5c:81:6c:07:65:8c:30:22:00:6b:b4:ec:b8:2b:3a:
         0a:6b:16:73:80:f2:9e:40:46:9e:55:f6:c2:f0:41:d9:cf:21:
         b3:6f:53:ce:af:84:ef:cf:3d:16:f7:a9:37:e9:89:3c:86:17:
         fe:54:d3:c7:f3:8f:eb:e6:1f:61:a2:44:39:74:79:f4:92:b7:
         ed:f9:42:6f:0f:c2:77:63:64:45:3f:63:5b:f6:be:3e:8c:7f:
         d1:f4:5a:f6:52:b4:4f:6c:ec:a9:a0:ad:d6:68:3c:bb:80:e8:
         10:1b:8a:43:7d:f7:6b:1e:09:ed:f7:d1:70:5f:32:a9:73:3d:
         54:30:c2:cf:21:b6:45:1c:d1:f5:c5:0c:1b:15:5b:ae:1f:69:
         54:98:c3:79:5e:0b:81:a4:b6:e6:c0:3f:b2:e6:e0:89:e2:2b:
         b6:8d:88:ea
-----BEGIN CERTIFICATE-----
MIIDRzCCAi+gAwIBAgIBATANBgkqhkiG9w0BAQsFADBpMQswCQYDVQQGEwJDTjEL
MAkGA1UECAwCU0gxCzAJBgNVBAcMAlNIMRYwFAYDVQQKDA1LaW5nQWxvbmcgTHRk
MSgwJgYJKoZIhvcNAQkBFhl6aGFuZy5sZWxpYW5nQGtvcnRpZGUuY29tMB4XDTE2
MDExNDA4MjYxN1oXDTE3MDExMzA4MjYxN1owbDELMAkGA1UEBhMCQ04xCzAJBgNV
BAgMAlNIMRYwFAYDVQQKDA1LaW5nQWxvbmcgTHRkMRgwFgYDVQQDDA96bGwuaG9t
ZW5ldC5vcmcxHjAcBgkqhkiG9w0BCQEWD3psbDUyNjdAMTYzLmNvbTCBnzANBgkq
hkiG9w0BAQEFAAOBjQAwgYkCgYEA6mvzYPIwu/zL3ktU8cYTInfJLWSDFfX6GMjw
U+hSA+B8RjBr4P2vxnmoDKzXT3ellbtyVnlokIE4agTq9RGUELNzgBp4rzZoGYPH
z+Sl9x18v8d1YktKc3RoygmdJIZSZE0PXmuuH6gjdXP8zgXBLXiohVZog8k2sGU2
oAsajO0CAwEAAaN7MHkwCQYDVR0TBAIwADAsBglghkgBhvhCAQ0EHxYdT3BlblNT
TCBHZW5lcmF0ZWQgQ2VydGlmaWNhdGUwHQYDVR0OBBYEFAYOuZ4ZbhUptdS/G2Ii
cfgiS9yoMB8GA1UdIwQYMBaAFL3kqDUrLGbF4LDUSA6K6nFbKMdKMA0GCSqGSIb3
DQEBCwUAA4IBAQAGiFmM4X9BphlYWCICKBa3YTr3NcXvpRIZjiVw6630JW8AupMh
U+jhA5W1BS8x/gd2yjtO5QlwDHZXSKW3KaqwKnukc3zkOCNQ63HdIVWglTfPDLvM
f4kOaOk2PAFcgWwHZYwwIgBrtOy4KzoKaxZzgPKeQEaeVfbC8EHZzyGzb1POr4Tv
zz0W96k36Yk8hhf+VNPH84/r5h9hokQ5dHn0krft+UJvD8J3Y2RFP2Nb9r4+jH/R
9Fr2UrRPbOypoK3WaDy7gOgQG4pDffdrHgnt99FwXzKpcz1UMMLPIbZFHNH1xQwb
FVuuH2lUmMN5XguBpLbmwD+y5uCJ4iu2jYjq
-----END CERTIFICATE-----
